target datalayout = "e-m:e-p270:32:32-p271:32:32-p272:64:64-i64:64-i128:128-f80:128-n8:16:32:64-S128"
target triple = "x86_64-pc-linux-gnu"

; Function Attrs: nounwind uwtable
define void @zend_register_default_classes() #0 {
  call void @zend_register_interfaces()
  call void @zend_register_default_exception()
  call void @zend_register_iterator_wrapper()
  call void @zend_register_closure_ce()
  call void @zend_register_generator_ce()
  call void @zend_register_weakref_ce()
  call void @zend_register_attribute_ce()
  call void @zend_register_enum_ce()
  call void @zend_register_fiber_ce()
  ret void
}

declare void @zend_register_interfaces() #1

declare void @zend_register_default_exception() #1

declare void @zend_register_iterator_wrapper() #1

declare void @zend_register_closure_ce() #1

declare void @zend_register_generator_ce() #1

declare void @zend_register_weakref_ce() #1

declare void @zend_register_attribute_ce() #1

declare void @zend_register_enum_ce() #1

declare void @zend_register_fiber_ce() #1


!llvm.module.flags = !{!0, !1, !2, !3}

!0 = !{i32 1, !"wchar_size", i32 4}
!1 = !{i32 8, !"PIC Level", i32 2}
!2 = !{i32 7, !"uwtable", i32 2}
!3 = !{i32 7, !"frame-pointer", i32 2}
